; Function Attrs: mustprogress nofree norecurse nosync nounwind willreturn memory(argmem: write) uwtable
define dso_local void @_ZN7CleanerC2EP5StateRK11BuildConfigP13DiskInterface(ptr noundef nonnull align 8 dereferenceable(156) initializes((0, 40), (48, 52), (56, 64)) %0, ptr noundef %1, ptr noundef nonnull align 8 dereferenceable(25) %2, ptr noundef %3) unnamed_addr #0 align 2 personality ptr @__gxx_personality_v0 {
  store ptr %1, ptr %0, align 8, !tbaa !4
  %5 = getelementptr inbounds nuw i8, ptr %0, i64 8
  store ptr %2, ptr %5, align 8, !tbaa !31
  %6 = getelementptr inbounds nuw i8, ptr %0, i64 16
  store ptr %1, ptr %6, align 8, !tbaa !32
  %7 = getelementptr inbounds nuw i8, ptr %0, i64 24
  store ptr %3, ptr %7, align 8, !tbaa !33
  %8 = getelementptr inbounds nuw i8, ptr %0, i64 32
  store ptr null, ptr %8, align 8, !tbaa !34
  %9 = getelementptr inbounds nuw i8, ptr %0, i64 48
  store i32 0, ptr %9, align 8, !tbaa !35
  %10 = getelementptr inbounds nuw i8, ptr %0, i64 56
  store ptr null, ptr %10, align 8, !tbaa !36
  %11 = getelementptr inbounds nuw i8, ptr %0, i64 64
  store ptr %9, ptr %11, align 8, !tbaa !37
  %12 = getelementptr inbounds nuw i8, ptr %0, i64 72
  store ptr %9, ptr %12, align 8, !tbaa !38
  %13 = getelementptr inbounds nuw i8, ptr %0, i64 80
  store i64 0, ptr %13, align 8, !tbaa !39
  %14 = getelementptr inbounds nuw i8, ptr %0, i64 96
  store i32 0, ptr %14, align 8, !tbaa !35
  %15 = getelementptr inbounds nuw i8, ptr %0, i64 104
  store ptr null, ptr %15, align 8, !tbaa !36
  %16 = getelementptr inbounds nuw i8, ptr %0, i64 112
  store ptr %14, ptr %16, align 8, !tbaa !37
  %17 = getelementptr inbounds nuw i8, ptr %0, i64 120
  store ptr %14, ptr %17, align 8, !tbaa !38
  %18 = getelementptr inbounds nuw i8, ptr %0, i64 128
  store i64 0, ptr %18, align 8, !tbaa !39
  %19 = getelementptr inbounds nuw i8, ptr %0, i64 136
  store i32 0, ptr %19, align 8, !tbaa !40
  %20 = getelementptr inbounds nuw i8, ptr %0, i64 144
  store ptr %3, ptr %20, align 8, !tbaa !41
  %21 = getelementptr inbounds nuw i8, ptr %0, i64 152
  store i32 0, ptr %21, align 8, !tbaa !42
  ret void
}